target datalayout = "e-m:e-p270:32:32-p271:32:32-p272:64:64-i64:64-i128:128-f80:128-n8:16:32:64-S128"
target triple = "x86_64-unknown-linux-gnu"

%struct.E1000State_st = type { %struct.PCIDevice, ptr, %struct.NICConf, %struct.MemoryRegion, %struct.MemoryRegion, [32768 x i32], [32 x i16], [64 x i16], i32, i32, %struct.e1000_tx, %struct.anon, ptr, ptr, i8, i8, i32, ptr, i32, i8, i8, %struct.e1000x_txd_props }
%struct.PCIDevice = type { %struct.DeviceState, i8, i8, ptr, ptr, ptr, ptr, ptr, i32, %struct.PCIReqIDCache, [64 x i8], [7 x %struct.PCIIORegion], %struct.AddressSpace, %struct.MemoryRegion, %struct.MemoryRegion, ptr, ptr, [3 x ptr], i8, i8, i32, i8, i32, ptr, ptr, ptr, ptr, ptr, ptr, %struct.MemoryRegion, %struct.MemoryRegion, %struct.MemoryRegion, ptr, i8, i32, i8, %struct.PCIExpressDevice, ptr, ptr, i32, i8, %struct.MemoryRegion, i32, ptr, ptr, ptr, ptr, ptr, i32 }
%struct.DeviceState = type { %struct.Object, ptr, ptr, i8, i8, i64, ptr, i32, i8, ptr, %struct.NamedGPIOListHead, %struct.NamedClockListHead, %struct.BusStateHead, i32, i32, i32, %struct.ResettableState, ptr, %struct.MemReentrancyGuard }
%struct.Object = type { ptr, ptr, ptr, i32, ptr }
%struct.NamedGPIOListHead = type { ptr }
%struct.NamedClockListHead = type { ptr }
%struct.BusStateHead = type { ptr }
%struct.ResettableState = type { i32, i8, i8 }
%struct.MemReentrancyGuard = type { i8 }
%struct.PCIReqIDCache = type { ptr, i32 }
%struct.PCIIORegion = type { i64, i64, i8, ptr, ptr }
%struct.AddressSpace = type { %struct.rcu_head, ptr, ptr, ptr, i32, i32, ptr, %union.anon, %union.anon.0 }
%struct.rcu_head = type { ptr, ptr }
%union.anon = type { %struct.QTailQLink }
%struct.QTailQLink = type { ptr, ptr }
%union.anon.0 = type { %struct.QTailQLink }
%struct.PCIExpressDevice = type { i8, i8, i8, i16, %struct.PCIEAERLog, i16, i16, i16, %struct.PCIESriovPF, %struct.PCIESriovVF }
%struct.PCIEAERLog = type { i16, i16, ptr }
%struct.PCIESriovPF = type { i16, [7 x i8], ptr, ptr }
%struct.PCIESriovVF = type { ptr, i16 }
%struct.NICConf = type { %struct.MACAddr, %struct.NICPeers, i32 }
%struct.MACAddr = type { [6 x i8] }
%struct.NICPeers = type { [1024 x ptr], i32 }
%struct.MemoryRegion = type { %struct.Object, i8, i8, i8, i8, i8, i8, i8, i8, i8, i8, ptr, ptr, ptr, ptr, ptr, ptr, i32, i128, i64, ptr, i64, i8, i8, i8, i8, i8, ptr, i64, i32, %union.anon.1, %union.anon.2, %union.anon.3, ptr, i32, ptr, ptr, i8 }
%union.anon.1 = type { %struct.QTailQLink }
%union.anon.2 = type { %struct.QTailQLink }
%union.anon.3 = type { %struct.QTailQLink }
%struct.e1000_tx = type { [256 x i8], [4 x i8], [4 x i8], [65536 x i8], i16, i8, i8, i8, %struct.e1000x_txd_props, %struct.e1000x_txd_props, i16, i8 }
%struct.anon = type { i32, i16, i16, i16, i32 }
%struct.e1000x_txd_props = type { i8, i8, i16, i8, i8, i16, i32, i8, i16, i8, i8, i8 }

; Function Attrs: nounwind sspstrong uwtable
define internal zeroext i1 @e1000_has_rxbufs(ptr noundef %s, i64 noundef %total_size) #0 {
entry:
  %retval = alloca i1, align 1
  %s.addr = alloca ptr, align 8
  %total_size.addr = alloca i64, align 8
  %bufs = alloca i32, align 4
  store ptr %s, ptr %s.addr, align 8
  store i64 %total_size, ptr %total_size.addr, align 8
  %0 = load i64, ptr %total_size.addr, align 8
  %1 = load ptr, ptr %s.addr, align 8
  %rxbuf_size = getelementptr inbounds %struct.E1000State_st, ptr %1, i32 0, i32 8
  %2 = load i32, ptr %rxbuf_size, align 16
  %conv = zext i32 %2 to i64
  %cmp = icmp ule i64 %0, %conv
  br i1 %cmp, label %if.then, label %if.end

if.then:                                          ; preds = %entry
  %3 = load ptr, ptr %s.addr, align 8
  %mac_reg = getelementptr inbounds %struct.E1000State_st, ptr %3, i32 0, i32 5
  %arrayidx = getelementptr [32768 x i32], ptr %mac_reg, i64 0, i64 2564
  %4 = load i32, ptr %arrayidx, align 16
  %5 = load ptr, ptr %s.addr, align 8
  %mac_reg2 = getelementptr inbounds %struct.E1000State_st, ptr %5, i32 0, i32 5
  %arrayidx3 = getelementptr [32768 x i32], ptr %mac_reg2, i64 0, i64 2566
  %6 = load i32, ptr %arrayidx3, align 8
  %cmp4 = icmp ne i32 %4, %6
  store i1 %cmp4, ptr %retval, align 1
  br label %return

if.end:                                           ; preds = %entry
  %7 = load ptr, ptr %s.addr, align 8
  %mac_reg6 = getelementptr inbounds %struct.E1000State_st, ptr %7, i32 0, i32 5
  %arrayidx7 = getelementptr [32768 x i32], ptr %mac_reg6, i64 0, i64 2564
  %8 = load i32, ptr %arrayidx7, align 16
  %9 = load ptr, ptr %s.addr, align 8
  %mac_reg8 = getelementptr inbounds %struct.E1000State_st, ptr %9, i32 0, i32 5
  %arrayidx9 = getelementptr [32768 x i32], ptr %mac_reg8, i64 0, i64 2566
  %10 = load i32, ptr %arrayidx9, align 8
  %cmp10 = icmp ult i32 %8, %10
  br i1 %cmp10, label %if.then12, label %if.else

if.then12:                                        ; preds = %if.end
  %11 = load ptr, ptr %s.addr, align 8
  %mac_reg13 = getelementptr inbounds %struct.E1000State_st, ptr %11, i32 0, i32 5
  %arrayidx14 = getelementptr [32768 x i32], ptr %mac_reg13, i64 0, i64 2566
  %12 = load i32, ptr %arrayidx14, align 8
  %13 = load ptr, ptr %s.addr, align 8
  %mac_reg15 = getelementptr inbounds %struct.E1000State_st, ptr %13, i32 0, i32 5
  %arrayidx16 = getelementptr [32768 x i32], ptr %mac_reg15, i64 0, i64 2564
  %14 = load i32, ptr %arrayidx16, align 16
  %sub = sub i32 %12, %14
  store i32 %sub, ptr %bufs, align 4
  br label %if.end37

if.else:                                          ; preds = %if.end
  %15 = load ptr, ptr %s.addr, align 8
  %mac_reg17 = getelementptr inbounds %struct.E1000State_st, ptr %15, i32 0, i32 5
  %arrayidx18 = getelementptr [32768 x i32], ptr %mac_reg17, i64 0, i64 2564
  %16 = load i32, ptr %arrayidx18, align 16
  %17 = load ptr, ptr %s.addr, align 8
  %mac_reg19 = getelementptr inbounds %struct.E1000State_st, ptr %17, i32 0, i32 5
  %arrayidx20 = getelementptr [32768 x i32], ptr %mac_reg19, i64 0, i64 2566
  %18 = load i32, ptr %arrayidx20, align 8
  %cmp21 = icmp ugt i32 %16, %18
  br i1 %cmp21, label %if.then23, label %if.else35

if.then23:                                        ; preds = %if.else
  %19 = load ptr, ptr %s.addr, align 8
  %mac_reg24 = getelementptr inbounds %struct.E1000State_st, ptr %19, i32 0, i32 5
  %arrayidx25 = getelementptr [32768 x i32], ptr %mac_reg24, i64 0, i64 2562
  %20 = load i32, ptr %arrayidx25, align 8
  %conv26 = zext i32 %20 to i64
  %div = udiv i64 %conv26, 16
  %21 = load ptr, ptr %s.addr, align 8
  %mac_reg27 = getelementptr inbounds %struct.E1000State_st, ptr %21, i32 0, i32 5
  %arrayidx28 = getelementptr [32768 x i32], ptr %mac_reg27, i64 0, i64 2566
  %22 = load i32, ptr %arrayidx28, align 8
  %conv29 = zext i32 %22 to i64
  %add = add i64 %div, %conv29
  %23 = load ptr, ptr %s.addr, align 8
  %mac_reg30 = getelementptr inbounds %struct.E1000State_st, ptr %23, i32 0, i32 5
  %arrayidx31 = getelementptr [32768 x i32], ptr %mac_reg30, i64 0, i64 2564
  %24 = load i32, ptr %arrayidx31, align 16
  %conv32 = zext i32 %24 to i64
  %sub33 = sub i64 %add, %conv32
  %conv34 = trunc i64 %sub33 to i32
  store i32 %conv34, ptr %bufs, align 4
  br label %if.end36

if.else35:                                        ; preds = %if.else
  store i1 false, ptr %retval, align 1
  br label %return

if.end36:                                         ; preds = %if.then23
  br label %if.end37

if.end37:                                         ; preds = %if.end36, %if.then12
  %25 = load i64, ptr %total_size.addr, align 8
  %26 = load i32, ptr %bufs, align 4
  %27 = load ptr, ptr %s.addr, align 8
  %rxbuf_size38 = getelementptr inbounds %struct.E1000State_st, ptr %27, i32 0, i32 8
  %28 = load i32, ptr %rxbuf_size38, align 16
  %mul = mul i32 %26, %28
  %conv39 = zext i32 %mul to i64
  %cmp40 = icmp ule i64 %25, %conv39
  store i1 %cmp40, ptr %retval, align 1
  br label %return

return:                                           ; preds = %if.end37, %if.else35, %if.then
  %29 = load i1, ptr %retval, align 1
  ret i1 %29
}

; Function Attrs: nounwind sspstrong uwtable
define internal zeroext i1 @e1000_can_receive(ptr noundef %nc) #0 {
entry:
  %nc.addr = alloca ptr, align 8
  %s = alloca ptr, align 8
  store ptr %nc, ptr %nc.addr, align 8
  %0 = load ptr, ptr %nc.addr, align 8
  %call = call ptr @qemu_get_nic_opaque(ptr noundef %0)
  store ptr %call, ptr %s, align 8
  %1 = load ptr, ptr %s, align 8
  %parent_obj = getelementptr inbounds %struct.E1000State_st, ptr %1, i32 0, i32 0
  %2 = load ptr, ptr %s, align 8
  %mac_reg = getelementptr inbounds %struct.E1000State_st, ptr %2, i32 0, i32 5
  %arraydecay = getelementptr inbounds [32768 x i32], ptr %mac_reg, i64 0, i64 0
  %call1 = call zeroext i1 @e1000x_rx_ready(ptr noundef %parent_obj, ptr noundef %arraydecay)
  br i1 %call1, label %land.lhs.true, label %land.end

land.lhs.true:                                    ; preds = %entry
  %3 = load ptr, ptr %s, align 8
  %call2 = call zeroext i1 @e1000_has_rxbufs(ptr noundef %3, i64 noundef 1)
  br i1 %call2, label %land.rhs, label %land.end

land.rhs:                                         ; preds = %land.lhs.true
  %4 = load ptr, ptr %s, align 8
  %flush_queue_timer = getelementptr inbounds %struct.E1000State_st, ptr %4, i32 0, i32 17
  %5 = load ptr, ptr %flush_queue_timer, align 16
  %call3 = call zeroext i1 @timer_pending(ptr noundef %5)
  %lnot = xor i1 %call3, true
  br label %land.end

land.end:                                         ; preds = %land.rhs, %land.lhs.true, %entry
  %6 = phi i1 [ false, %land.lhs.true ], [ false, %entry ], [ %lnot, %land.rhs ]
  ret i1 %6
}