; Function Attrs: nounwind sspstrong uwtable
define internal zeroext i1 @e1000_can_receive(ptr noundef %nc) #0 {
entry:
  %call = tail call ptr @qemu_get_nic_opaque(ptr noundef %nc) #13
  %mac_reg = getelementptr inbounds nuw i8, ptr %call, i64 11376
  %call1 = tail call zeroext i1 @e1000x_rx_ready(ptr noundef %call, ptr noundef nonnull %mac_reg) #13
  br i1 %call1, label %land.lhs.true, label %land.end

land.lhs.true:                                    ; preds = %entry
  %rxbuf_size.i = getelementptr inbounds nuw i8, ptr %call, i64 142640
  %0 = load i32, ptr %rxbuf_size.i, align 16
  %cmp.not.i = icmp eq i32 %0, 0
  %arrayidx7.i = getelementptr i8, ptr %call, i64 21632
  %1 = load i32, ptr %arrayidx7.i, align 16
  %arrayidx9.i = getelementptr i8, ptr %call, i64 21640
  %2 = load i32, ptr %arrayidx9.i, align 8
  %cmp4.i.not = icmp eq i32 %1, %2
  %or.cond = select i1 %cmp.not.i, i1 true, i1 %cmp4.i.not
  br i1 %or.cond, label %land.end, label %land.rhs

land.rhs:                                         ; preds = %land.lhs.true
  %flush_queue_timer = getelementptr inbounds nuw i8, ptr %call, i64 208544
  %3 = load ptr, ptr %flush_queue_timer, align 16
  %call3 = tail call zeroext i1 @timer_pending(ptr noundef %3) #13
  %lnot = xor i1 %call3, true
  br label %land.end

land.end:                                         ; preds = %land.lhs.true, %land.rhs, %entry
  %4 = phi i1 [ false, %entry ], [ %lnot, %land.rhs ], [ false, %land.lhs.true ]
  ret i1 %4
}